(dp0
S'cookies'
p1
(dp2
S'wxloadtime'
p3
S'1489560900_expired'
p4
sS'webwx_data_ticket'
p5
S'gSdyBZZD0ZHmDlHVDTVyM1ub'
p6
sS'wxuin'
p7
S'129428503'
p8
sS'login_frequency'
p9
S'2'
p10
sS'MM_WX_NOTIFY_STATE'
p11
S'1'
p12
sS'MM_WX_SOUND_STATE'
p13
g12
sS'webwx_auth_ticket'
p14
S'CIsBELTQ6J8KGoAB4LMcUg/Cm/pwdXFnc1Qm+XoUNyDSxOpUJe/PkXij2AU8oT55EKO/ggGIHcj3UICuU0Wpmyg0cMoYO/Ca8MpvBRpW1KaakNDnAVjck1vjEyI/h05BcIAR+07dMerbD90mdkEXgQl3LsP6udddbREgtFQAQ/EHR7g5OQQoyMWmp24='
p15
sS'last_wxuin'
p16
S'129428503'
p17
sS'webwxuvid'
p18
S'19dd1d24298d3bc911118f05dad5fd0d2b802e598974d384d2a92cd38eb0e0d9feb1f9b545338ba1d848310e5b2b6efa'
p19
sS'wxpluginkey'
p20
S'1489556920'
p21
sS'wxsid'
p22
S'PXX/R2t1nCRC3KoP'
p23
sS'mm_lang'
p24
S'zh_CN'
p25
ssS'version'
p26
S'1.2.29'
p27
sS'storage'
p28
(dp29
S'userName'
p30
V@ab09ff5422e29b5602afef0551f6dc4a3c125e5696fcfbcd7c97064ab8072c03
p31
sS'lastInputUserName'
p32
NsS'memberList'
p33
(lp34
(dp35
S'UserName'
p36
g31
sS'City'
p37
S''
p38
sS'DisplayName'
p39
g38
sS'UniFriend'
p40
I0
sS'OwnerUin'
p41
I0
sS'MemberList'
p42
(lp43
sS'PYQuanPin'
p44
V
p45
sS'RemarkPYInitial'
p46
g45
sS'Uin'
p47
I129428503
sS'AppAccountFlag'
p48
I0
sS'VerifyFlag'
p49
I0
sS'Province'
p50
g38
sS'KeyWord'
p51
g38
sS'RemarkName'
p52
g45
sS'PYInitial'
p53
g45
sS'ChatRoomId'
p54
I0
sS'HideInputBarFlag'
p55
I0
sVHeadImgFlag
p56
I1
sS'EncryChatRoomId'
p57
g38
sS'AttrStatus'
p58
I0
sS'SnsFlag'
p59
I0
sS'MemberCount'
p60
I0
sVWebWxPluginSwitch
p61
I0
sS'Alias'
p62
g38
sS'Signature'
p63
g45
sS'ContactFlag'
p64
I0
sS'NickName'
p65
Vmyhelper
p66
sS'RemarkPYQuanPin'
p67
g45
sS'HeadImgUrl'
p68
V/cgi-bin/mmwebwx-bin/webwxgeticon?seq=539705476&username=@ab09ff5422e29b5602afef0551f6dc4a3c125e5696fcfbcd7c97064ab8072c03&skey=@crypt_16f37a33_d0379c1f228eeb03259ca67dc5790c11
p69
sS'Sex'
p70
I0
sS'StarFriend'
p71
I0
sS'Statues'
p72
I0
sa(dp73
VUserName
p74
V@afb0d36ed36bb389ee07c6bb3d92c678
p75
sVCity
p76
V\u54c8\u5c14\u6ee8
p77
sVDisplayName
p78
g45
sVUniFriend
p79
I0
sVMemberList
p80
(lp81
sVPYQuanPin
p82
Vzhaoziji
p83
sVRemarkPYInitial
p84
g45
sVSex
p85
I1
sVAppAccountFlag
p86
I0
sVVerifyFlag
p87
I0
sVProvince
p88
V\u9ed1\u9f99\u6c5f
p89
sVKeyWord
p90
Vhfl
p91
sVRemarkName
p92
g45
sVPYInitial
p93
VZZJ
p94
sVIsOwner
p95
I0
sVChatRoomId
p96
I0
sVHideInputBarFlag
p97
I0
sVEncryChatRoomId
p98
g45
sVAttrStatus
p99
I77933
sVSnsFlag
p100
I49
sVMemberCount
p101
I0
sVOwnerUin
p102
I0
sVAlias
p103
g45
sVSignature
p104
V\u627e\u81ea\u5df1 \u505a\u81ea\u5df1 
p105
sVContactFlag
p106
I3
sVNickName
p107
V\u627e\u81ea\u5df1
p108
sVRemarkPYQuanPin
p109
g45
sVHeadImgUrl
p110
V/cgi-bin/mmwebwx-bin/webwxgeticon?seq=647270897&username=@afb0d36ed36bb389ee07c6bb3d92c678&skey=@crypt_16f37a33_d0379c1f228eeb03259ca67dc5790c11
p111
sVUin
p112
Vhfloveyy1314
p113
sVStarFriend
p114
I0
sVStatues
p115
I0
sasS'chatroomList'
p116
(lp117
(dp118
VUserName
p119
V@@5971060d08294de37b7d6615ea8cd4ee1905baf7631635938ce282a8a49bd81e
p120
sVCity
p121
g45
sVDisplayName
p122
g45
sVUniFriend
p123
I0
sVMemberList
p124
(lp125
(dp126
VUserName
p127
V@afb0d36ed36bb389ee07c6bb3d92c678
p128
sVRemarkPYQuanPin
p129
g45
sVDisplayName
p130
g45
sVKeyWord
p131
g45
sVPYInitial
p132
g45
sVUin
p133
I0
sVRemarkPYInitial
p134
g45
sVPYQuanPin
p135
g45
sVMemberStatus
p136
I0
sVNickName
p137
V\u627e\u81ea\u5df1
p138
sVAttrStatus
p139
I77933
sa(dp140
VUserName
p141
V@0236239bfac47a4c86facbfb26b1f01b87aebe00b24b955153ffbd3c9229bdfd
p142
sVRemarkPYQuanPin
p143
g45
sVDisplayName
p144
g45
sVKeyWord
p145
g45
sVPYInitial
p146
g45
sVUin
p147
I0
sVRemarkPYInitial
p148
g45
sVPYQuanPin
p149
g45
sVMemberStatus
p150
I0
sVNickName
p151
V\u7389\u6d01
p152
sVAttrStatus
p153
I104383
sa(dp154
VUserName
p155
V@9d49b5aabdf85e6c7bc10ae324cabe769207aeaa559e69ca2c3239020f51c0ef
p156
sVRemarkPYQuanPin
p157
g45
sVDisplayName
p158
g45
sVKeyWord
p159
g45
sVPYInitial
p160
g45
sVUin
p161
I0
sVRemarkPYInitial
p162
g45
sVPYQuanPin
p163
g45
sVMemberStatus
p164
I0
sVNickName
p165
Vtaozi
p166
sVAttrStatus
p167
I16880061
sa(dp168
VUserName
p169
V@ab09ff5422e29b5602afef0551f6dc4a3c125e5696fcfbcd7c97064ab8072c03
p170
sVRemarkPYQuanPin
p171
g45
sVDisplayName
p172
g45
sVKeyWord
p173
g45
sVPYInitial
p174
g45
sVUin
p175
I0
sVRemarkPYInitial
p176
g45
sVPYQuanPin
p177
g45
sVMemberStatus
p178
I0
sVNickName
p179
Vmyhelper
p180
sVAttrStatus
p181
I102437
sasVPYQuanPin
p182
g45
sVRemarkPYInitial
p183
g45
sVUin
p184
V7001348520@chatroom
p185
sVAppAccountFlag
p186
I0
sVVerifyFlag
p187
I0
sVProvince
p188
g45
sVKeyWord
p189
g45
sVRemarkName
p190
g45
sS'self'
p191
g168
sS'isAdmin'
p192
NsVChatRoomId
p193
I0
sVContactType
p194
I0
sVHideInputBarFlag
p195
I0
sVEncryChatRoomId
p196
g45
sVAttrStatus
p197
I0
sVSnsFlag
p198
I0
sVMemberCount
p199
I4
sVOwnerUin
p200
I0
sVAlias
p201
g45
sVSignature
p202
g45
sVContactFlag
p203
I2
sVNickName
p204
V\u6d4b\u8bd5\u7fa4
p205
sVChatRoomOwner
p206
V@afb0d36ed36bb389ee07c6bb3d92c678
p207
sVRemarkPYQuanPin
p208
g45
sVStatues
p209
I1
sVHeadImgUrl
p210
V/cgi-bin/mmwebwx-bin/webwxgetheadimg?seq=0&username=@@5971060d08294de37b7d6615ea8cd4ee1905baf7631635938ce282a8a49bd81e&skey=@crypt_16f37a33_d0379c1f228eeb03259ca67dc5790c11
p211
sVSex
p212
I0
sVStarFriend
p213
I0
sVIsOwner
p214
I0
sVPYInitial
p215
g45
sVHeadImgUpdateFlag
p216
I1
sasS'nickName'
p217
g66
sS'mpList'
p218
(lp219
ssS'loginInfo'
p220
(dp221
S'SyncKey'
p222
(dp223
VCount
p224
I9
sVList
p225
(lp226
(dp227
VVal
p228
I647270996
sVKey
p229
I1
sa(dp230
VVal
p231
I647271217
sVKey
p232
I2
sa(dp233
VVal
p234
I647271038
sVKey
p235
I3
sa(dp236
VVal
p237
I647271088
sVKey
p238
I11
sa(dp239
VVal
p240
I647270873
sVKey
p241
I13
sa(dp242
VVal
p243
I1489561915
sVKey
p244
I201
sa(dp245
VVal
p246
I1489544422
sVKey
p247
I203
sa(dp248
VVal
p249
I1489556920
sVKey
p250
I1000
sa(dp251
VVal
p252
I1489545931
sVKey
p253
I1001
sassS'syncUrl'
p254
S'https://webpush.wx2.qq.com/cgi-bin/mmwebwx-bin'
p255
sS'skey'
p256
V@crypt_16f37a33_d0379c1f228eeb03259ca67dc5790c11
p257
sS'wxuin'
p258
V129428503
p259
sS'synckey'
p260
S'1_647270996|2_647271217|3_647271038|11_647271088|13_647270873|201_1489561915|203_1489544422|1000_1489556920|1001_1489545931'
p261
sS'url'
p262
Vhttps://wx2.qq.com/cgi-bin/mmwebwx-bin
p263
sS'pass_ticket'
p264
VOTt2tVjvpD3YFY5f7IHU4uiBGXzMgOQbTYC7TeUZZ4U%3D
p265
sS'wxsid'
p266
VPXX/R2t1nCRC3KoP
p267
sS'InviteStartCount'
p268
I40
sS'deviceid'
p269
S'e661662297144163'
p270
sS'fileUrl'
p271
S'https://file.wx2.qq.com/cgi-bin/mmwebwx-bin'
p272
sS'BaseRequest'
p273
(dp274
S'Sid'
p275
g267
sS'Skey'
p276
g257
sS'DeviceID'
p277
g265
sg47
g259
ssS'User'
p278
g35
ss.