(dp0
S'cookies'
p1
(dp2
S'wxloadtime'
p3
S'1489540085_expired'
p4
sS'webwx_data_ticket'
p5
S'gSfU9bqy86H1koICi77Q3CPX'
p6
sS'wxuin'
p7
S'129428503'
p8
sS'login_frequency'
p9
S'2'
p10
sS'MM_WX_NOTIFY_STATE'
p11
S'1'
p12
sS'MM_WX_SOUND_STATE'
p13
g12
sS'webwx_auth_ticket'
p14
S'CIsBEP7YjKAOGoABKut3b13URH6w2SygJWS5gHoUNyDSxOpUJe/PkXij2AU8oT55EKO/ggGIHcj3UICuU0Wpmyg0cMoYO/Ca8MpvBRpW1KaakNDnAVjck1vjEyI/h05BcIAR+07dMerbD90mWDIFhBfNUtjN4fnPezyly+trH5zrzdptgz431xXQvH4='
p15
sS'last_wxuin'
p16
S'129428503'
p17
sS'webwxuvid'
p18
S'19dd1d24298d3bc911118f05dad5fd0d2b802e598974d384d2a92cd38eb0e0d9feb1f9b545338ba1d848310e5b2b6efa'
p19
sS'wxpluginkey'
p20
S'1489540470'
p21
sS'wxsid'
p22
S'qugOhjlyCmYz8pJe'
p23
sS'mm_lang'
p24
S'zh_CN'
p25
ssS'version'
p26
S'1.2.29'
p27
sS'storage'
p28
(dp29
S'userName'
p30
V@179126f354b6545a8119d53403e2dcfed7a2c160be6c5a7a0ea02e90304707eb
p31
sS'lastInputUserName'
p32
NsS'memberList'
p33
(lp34
(dp35
S'UserName'
p36
g31
sS'City'
p37
S''
p38
sS'DisplayName'
p39
g38
sS'UniFriend'
p40
I0
sS'MemberList'
p41
(lp42
sS'PYQuanPin'
p43
V
p44
sS'RemarkPYInitial'
p45
g44
sS'Sex'
p46
I0
sS'AppAccountFlag'
p47
I0
sS'VerifyFlag'
p48
I0
sS'Province'
p49
g38
sS'KeyWord'
p50
g38
sS'RemarkName'
p51
g44
sS'PYInitial'
p52
g44
sS'ChatRoomId'
p53
I0
sS'HideInputBarFlag'
p54
I0
sVHeadImgFlag
p55
I1
sS'EncryChatRoomId'
p56
g38
sS'AttrStatus'
p57
I0
sVWebWxPluginSwitch
p58
I0
sS'SnsFlag'
p59
I0
sS'MemberCount'
p60
I0
sS'OwnerUin'
p61
I0
sS'Alias'
p62
g38
sS'Signature'
p63
g44
sS'ContactFlag'
p64
I0
sS'NickName'
p65
Vmyhelper
p66
sS'RemarkPYQuanPin'
p67
g44
sS'HeadImgUrl'
p68
V/cgi-bin/mmwebwx-bin/webwxgeticon?seq=1575306777&username=@179126f354b6545a8119d53403e2dcfed7a2c160be6c5a7a0ea02e90304707eb&skey=@crypt_16f37a33_87049724b35a76d3b9431a5fb51db62f
p69
sS'Uin'
p70
I129428503
sS'StarFriend'
p71
I0
sS'Statues'
p72
I0
sa(dp73
VUserName
p74
V@78ab2c9a0e3aacc75e3b492de681d80e
p75
sVCity
p76
V\u54c8\u5c14\u6ee8
p77
sVDisplayName
p78
g44
sVUniFriend
p79
I0
sVMemberList
p80
(lp81
sVPYQuanPin
p82
Vzhaoziji
p83
sVRemarkPYInitial
p84
g44
sVUin
p85
Vhfloveyy1314
p86
sVAppAccountFlag
p87
I0
sVVerifyFlag
p88
I0
sVProvince
p89
V\u9ed1\u9f99\u6c5f
p90
sVKeyWord
p91
Vhfl
p92
sVRemarkName
p93
g44
sVPYInitial
p94
VZZJ
p95
sVChatRoomId
p96
I0
sVIsOwner
p97
I0
sVHideInputBarFlag
p98
I0
sVEncryChatRoomId
p99
g44
sVAttrStatus
p100
I77933
sVSnsFlag
p101
I49
sVMemberCount
p102
I0
sVOwnerUin
p103
I0
sVAlias
p104
g44
sVSignature
p105
V\u627e\u81ea\u5df1 \u505a\u81ea\u5df1 
p106
sVContactFlag
p107
I3
sVNickName
p108
V\u627e\u81ea\u5df1
p109
sVRemarkPYQuanPin
p110
g44
sVHeadImgUrl
p111
V/cgi-bin/mmwebwx-bin/webwxgeticon?seq=647270897&username=@78ab2c9a0e3aacc75e3b492de681d80e&skey=@crypt_16f37a33_87049724b35a76d3b9431a5fb51db62f
p112
sVSex
p113
I1
sVStarFriend
p114
I0
sVStatues
p115
I0
sasS'chatroomList'
p116
(lp117
(dp118
VUserName
p119
V@@303d5f17353837f55247f9f5e5d3fa120deeb42b4c67d5b40af1ec4043dd4b11
p120
sVCity
p121
g44
sVDisplayName
p122
g44
sVUniFriend
p123
I0
sVMemberList
p124
(lp125
(dp126
VUserName
p127
V@78ab2c9a0e3aacc75e3b492de681d80e
p128
sVRemarkPYQuanPin
p129
g44
sVDisplayName
p130
g44
sVKeyWord
p131
Vhfl
p132
sVPYInitial
p133
g44
sVUin
p134
I0
sVMemberStatus
p135
I0
sVPYQuanPin
p136
g44
sVRemarkPYInitial
p137
g44
sVNickName
p138
V\u627e\u81ea\u5df1
p139
sVAttrStatus
p140
I77933
sa(dp141
VUserName
p142
V@bcc85c72a0d69a56701fead31a560f8a0817305a89b1e41a7ae330e228f2519c
p143
sVRemarkPYQuanPin
p144
g44
sVDisplayName
p145
g44
sVKeyWord
p146
g44
sVPYInitial
p147
g44
sVUin
p148
I0
sVMemberStatus
p149
I0
sVPYQuanPin
p150
g44
sVRemarkPYInitial
p151
g44
sVNickName
p152
V\u7389\u6d01
p153
sVAttrStatus
p154
I104383
sa(dp155
VUserName
p156
V@2028cb141981ceed054dfb17d29ec70bc15e5f1833f0a2364fedb741421fa439
p157
sVRemarkPYQuanPin
p158
g44
sVDisplayName
p159
g44
sVKeyWord
p160
g44
sVPYInitial
p161
g44
sVUin
p162
I0
sVMemberStatus
p163
I0
sVPYQuanPin
p164
g44
sVRemarkPYInitial
p165
g44
sVNickName
p166
Vtaozi
p167
sVAttrStatus
p168
I16880061
sa(dp169
VUserName
p170
V@179126f354b6545a8119d53403e2dcfed7a2c160be6c5a7a0ea02e90304707eb
p171
sVRemarkPYQuanPin
p172
g44
sVDisplayName
p173
g44
sVKeyWord
p174
g44
sVPYInitial
p175
g44
sVUin
p176
I0
sVMemberStatus
p177
I0
sVPYQuanPin
p178
g44
sVRemarkPYInitial
p179
g44
sVNickName
p180
Vmyhelper
p181
sVAttrStatus
p182
I102437
sasVPYQuanPin
p183
Vceshiqun
p184
sVRemarkPYInitial
p185
g44
sVSex
p186
I0
sVAppAccountFlag
p187
I0
sVVerifyFlag
p188
I0
sVProvince
p189
g44
sVKeyWord
p190
g44
sVRemarkName
p191
g44
sS'self'
p192
g169
sVIsOwner
p193
I0
sVChatRoomId
p194
I0
sVHideInputBarFlag
p195
I0
sVEncryChatRoomId
p196
V@cbc0aa0669808c1a6678ca342d9a4513
p197
sVAttrStatus
p198
I0
sVSnsFlag
p199
I0
sVMemberCount
p200
I4
sVOwnerUin
p201
I0
sVAlias
p202
g44
sVSignature
p203
g44
sVContactFlag
p204
I2
sVNickName
p205
V\u6d4b\u8bd5\u7fa4
p206
sVRemarkPYQuanPin
p207
g44
sVStatues
p208
I1
sVHeadImgUrl
p209
V/cgi-bin/mmwebwx-bin/webwxgetheadimg?seq=647270901&username=@@303d5f17353837f55247f9f5e5d3fa120deeb42b4c67d5b40af1ec4043dd4b11&skey=
p210
sVUin
p211
V7001348520@chatroom
p212
sVStarFriend
p213
I0
sVPYInitial
p214
VCSQ
p215
sS'isAdmin'
p216
NsasS'nickName'
p217
g66
sS'mpList'
p218
(lp219
ssS'loginInfo'
p220
(dp221
S'SyncKey'
p222
(dp223
VCount
p224
I8
sVList
p225
(lp226
(dp227
VVal
p228
I647270996
sVKey
p229
I1
sa(dp230
VVal
p231
I647271079
sVKey
p232
I2
sa(dp233
VVal
p234
I647271038
sVKey
p235
I3
sa(dp236
VVal
p237
I647270902
sVKey
p238
I11
sa(dp239
VVal
p240
I647270873
sVKey
p241
I13
sa(dp242
VVal
p243
I1489544193
sVKey
p244
I201
sa(dp245
VVal
p246
I1489540470
sVKey
p247
I1000
sa(dp248
VVal
p249
I1489538372
sVKey
p250
I1001
sassS'syncUrl'
p251
S'https://webpush.wx2.qq.com/cgi-bin/mmwebwx-bin'
p252
sS'skey'
p253
V@crypt_16f37a33_87049724b35a76d3b9431a5fb51db62f
p254
sS'wxuin'
p255
V129428503
p256
sS'synckey'
p257
S'1_647270996|2_647271079|3_647271038|11_647270902|13_647270873|201_1489544193|1000_1489540470|1001_1489538372'
p258
sS'url'
p259
Vhttps://wx2.qq.com/cgi-bin/mmwebwx-bin
p260
sS'pass_ticket'
p261
VZ7qzHBONeCU2qve3Xa%2FX%2BDo6WuC%2FS0t55pCOxMVKh6M%3D
p262
sS'deviceid'
p263
S'e107225938151669'
p264
sS'wxsid'
p265
VqugOhjlyCmYz8pJe
p266
sS'InviteStartCount'
p267
I40
sS'fileUrl'
p268
S'https://file.wx2.qq.com/cgi-bin/mmwebwx-bin'
p269
sS'BaseRequest'
p270
(dp271
g70
g256
sS'Skey'
p272
g254
sS'DeviceID'
p273
g262
sS'Sid'
p274
g266
ssS'User'
p275
g35
ss.