(dp0
S'cookies'
p1
(dp2
S'wxloadtime'
p3
S'1489556920_expired'
p4
sS'webwx_data_ticket'
p5
S'gSfoB6i4C1/OPOXMM6PYAkUF'
p6
sS'wxuin'
p7
S'129428503'
p8
sS'login_frequency'
p9
S'2'
p10
sS'MM_WX_NOTIFY_STATE'
p11
S'1'
p12
sS'MM_WX_SOUND_STATE'
p13
g12
sS'webwx_auth_ticket'
p14
S'CIsBELnZvNsPGoABQx/kSDVo4ZbaD/979+RWCnoUNyDSxOpUJe/PkXij2AU8oT55EKO/ggGIHcj3UICuU0Wpmyg0cMoYO/Ca8MpvBRpW1KaakNDnAVjck1vjEyI/h05BcIAR+07dMerbD90mWDIFhBfNUtjN4fnPezyly+trH5zrzdptgz431xXQvH4='
p15
sS'last_wxuin'
p16
S'129428503'
p17
sS'webwxuvid'
p18
S'19dd1d24298d3bc911118f05dad5fd0d2b802e598974d384d2a92cd38eb0e0d9feb1f9b545338ba1d848310e5b2b6efa'
p19
sS'wxpluginkey'
p20
S'1489545901'
p21
sS'wxsid'
p22
S'ZEvoBfGC0OBHBQgI'
p23
sS'mm_lang'
p24
S'zh_CN'
p25
ssS'version'
p26
S'1.2.29'
p27
sS'storage'
p28
(dp29
S'userName'
p30
V@1c946624b893750298dd9ca9c417ac911cba64c4bc91ac0bea26f05b00f1ba19
p31
sS'lastInputUserName'
p32
NsS'memberList'
p33
(lp34
(dp35
S'UserName'
p36
g31
sS'City'
p37
S''
p38
sS'DisplayName'
p39
g38
sS'UniFriend'
p40
I0
sS'MemberList'
p41
(lp42
sS'PYQuanPin'
p43
V
p44
sS'RemarkPYInitial'
p45
g44
sS'Sex'
p46
I0
sS'AppAccountFlag'
p47
I0
sS'VerifyFlag'
p48
I0
sS'Province'
p49
g38
sS'KeyWord'
p50
g38
sS'RemarkName'
p51
g44
sS'PYInitial'
p52
g44
sS'ChatRoomId'
p53
I0
sS'HideInputBarFlag'
p54
I0
sVHeadImgFlag
p55
I1
sS'EncryChatRoomId'
p56
g38
sS'AttrStatus'
p57
I0
sVWebWxPluginSwitch
p58
I0
sS'SnsFlag'
p59
I0
sS'MemberCount'
p60
I0
sS'OwnerUin'
p61
I0
sS'Alias'
p62
g38
sS'Signature'
p63
g44
sS'ContactFlag'
p64
I0
sS'NickName'
p65
Vmyhelper
p66
sS'RemarkPYQuanPin'
p67
g44
sS'HeadImgUrl'
p68
V/cgi-bin/mmwebwx-bin/webwxgeticon?seq=2029460967&username=@1c946624b893750298dd9ca9c417ac911cba64c4bc91ac0bea26f05b00f1ba19&skey=@crypt_16f37a33_6462bbebfd95f5fdf3624c81f873bdf6
p69
sS'Uin'
p70
I129428503
sS'StarFriend'
p71
I0
sS'Statues'
p72
I0
sa(dp73
VUserName
p74
V@33efe4e5d199718d97c2cfdf2f167f0b
p75
sVCity
p76
V\u54c8\u5c14\u6ee8
p77
sVDisplayName
p78
g44
sVUniFriend
p79
I0
sVMemberList
p80
(lp81
sVPYQuanPin
p82
Vzhaoziji
p83
sVRemarkPYInitial
p84
g44
sVUin
p85
Vhfloveyy1314
p86
sVAppAccountFlag
p87
I0
sVVerifyFlag
p88
I0
sVProvince
p89
V\u9ed1\u9f99\u6c5f
p90
sVKeyWord
p91
Vhfl
p92
sVRemarkName
p93
g44
sVPYInitial
p94
VZZJ
p95
sVChatRoomId
p96
I0
sVIsOwner
p97
I0
sVHideInputBarFlag
p98
I0
sVEncryChatRoomId
p99
g44
sVAttrStatus
p100
I77933
sVSnsFlag
p101
I49
sVMemberCount
p102
I0
sVOwnerUin
p103
I0
sVAlias
p104
g44
sVSignature
p105
V\u627e\u81ea\u5df1 \u505a\u81ea\u5df1 
p106
sVContactFlag
p107
I3
sVNickName
p108
V\u627e\u81ea\u5df1
p109
sVRemarkPYQuanPin
p110
g44
sVHeadImgUrl
p111
V/cgi-bin/mmwebwx-bin/webwxgeticon?seq=647270897&username=@33efe4e5d199718d97c2cfdf2f167f0b&skey=@crypt_16f37a33_6462bbebfd95f5fdf3624c81f873bdf6
p112
sVSex
p113
I1
sVStarFriend
p114
I0
sVStatues
p115
I0
sasS'chatroomList'
p116
(lp117
(dp118
VUserName
p119
V@@73d9c74a4f868aed658c8fa451339632bdbd44ba8882ca36cbcc7c734c7fc026
p120
sVCity
p121
g44
sVDisplayName
p122
g44
sVUniFriend
p123
I0
sVMemberList
p124
(lp125
(dp126
VUserName
p127
V@33efe4e5d199718d97c2cfdf2f167f0b
p128
sVRemarkPYQuanPin
p129
g44
sVDisplayName
p130
g44
sVKeyWord
p131
g44
sVPYInitial
p132
g44
sVUin
p133
I0
sVMemberStatus
p134
I0
sVPYQuanPin
p135
g44
sVRemarkPYInitial
p136
g44
sVNickName
p137
V\u627e\u81ea\u5df1
p138
sVAttrStatus
p139
I77933
sa(dp140
VUserName
p141
V@2be1e2942e21eec0e3c2f7a0495f49fdfd37bc06952c77a482b32d76dbf07ea8
p142
sVRemarkPYQuanPin
p143
g44
sVDisplayName
p144
g44
sVKeyWord
p145
g44
sVPYInitial
p146
g44
sVUin
p147
I0
sVMemberStatus
p148
I0
sVPYQuanPin
p149
g44
sVRemarkPYInitial
p150
g44
sVNickName
p151
V\u7389\u6d01
p152
sVAttrStatus
p153
I104383
sa(dp154
VUserName
p155
V@150674067af0b54c6bd7e4a069e5722ede9c8cb4e0e262c615775ebca6423676
p156
sVRemarkPYQuanPin
p157
g44
sVDisplayName
p158
g44
sVKeyWord
p159
g44
sVPYInitial
p160
g44
sVUin
p161
I0
sVMemberStatus
p162
I0
sVPYQuanPin
p163
g44
sVRemarkPYInitial
p164
g44
sVNickName
p165
Vtaozi
p166
sVAttrStatus
p167
I16880061
sa(dp168
VUserName
p169
V@1c946624b893750298dd9ca9c417ac911cba64c4bc91ac0bea26f05b00f1ba19
p170
sVRemarkPYQuanPin
p171
g44
sVDisplayName
p172
g44
sVKeyWord
p173
g44
sVPYInitial
p174
g44
sVUin
p175
I0
sVMemberStatus
p176
I0
sVPYQuanPin
p177
g44
sVRemarkPYInitial
p178
g44
sVNickName
p179
Vmyhelper
p180
sVAttrStatus
p181
I102437
sasVPYQuanPin
p182
g44
sVRemarkPYInitial
p183
g44
sVSex
p184
I0
sVAppAccountFlag
p185
I0
sVVerifyFlag
p186
I0
sVProvince
p187
g44
sVKeyWord
p188
g44
sVRemarkName
p189
g44
sS'self'
p190
g168
sVChatRoomId
p191
I0
sS'isAdmin'
p192
NsVContactType
p193
I0
sVHideInputBarFlag
p194
I0
sVEncryChatRoomId
p195
g44
sVAttrStatus
p196
I0
sVSnsFlag
p197
I0
sVMemberCount
p198
I4
sVOwnerUin
p199
I0
sVAlias
p200
g44
sVSignature
p201
g44
sVContactFlag
p202
I2
sVNickName
p203
V\u6d4b\u8bd5\u7fa4
p204
sVChatRoomOwner
p205
V@33efe4e5d199718d97c2cfdf2f167f0b
p206
sVRemarkPYQuanPin
p207
g44
sVStatues
p208
I1
sVHeadImgUrl
p209
V/cgi-bin/mmwebwx-bin/webwxgetheadimg?seq=0&username=@@73d9c74a4f868aed658c8fa451339632bdbd44ba8882ca36cbcc7c734c7fc026&skey=@crypt_16f37a33_6462bbebfd95f5fdf3624c81f873bdf6
p210
sVUin
p211
V7001348520@chatroom
p212
sVStarFriend
p213
I0
sVIsOwner
p214
I0
sVPYInitial
p215
g44
sVHeadImgUpdateFlag
p216
I1
sasS'nickName'
p217
g66
sS'mpList'
p218
(lp219
ssS'loginInfo'
p220
(dp221
S'SyncKey'
p222
(dp223
VCount
p224
I9
sVList
p225
(lp226
(dp227
VVal
p228
I647270996
sVKey
p229
I1
sa(dp230
VVal
p231
I647271149
sVKey
p232
I2
sa(dp233
VVal
p234
I647271038
sVKey
p235
I3
sa(dp236
VVal
p237
I647271088
sVKey
p238
I11
sa(dp239
VVal
p240
I647270873
sVKey
p241
I13
sa(dp242
VVal
p243
I1489558983
sVKey
p244
I201
sa(dp245
VVal
p246
I1489544422
sVKey
p247
I203
sa(dp248
VVal
p249
I1489545901
sVKey
p250
I1000
sa(dp251
VVal
p252
I1489545931
sVKey
p253
I1001
sassS'syncUrl'
p254
S'https://webpush.wx2.qq.com/cgi-bin/mmwebwx-bin'
p255
sS'skey'
p256
V@crypt_16f37a33_6462bbebfd95f5fdf3624c81f873bdf6
p257
sS'wxuin'
p258
V129428503
p259
sS'synckey'
p260
S'1_647270996|2_647271149|3_647271038|11_647271088|13_647270873|201_1489558983|203_1489544422|1000_1489545901|1001_1489545931'
p261
sS'url'
p262
Vhttps://wx2.qq.com/cgi-bin/mmwebwx-bin
p263
sS'pass_ticket'
p264
VCyark0trEBKLpTekj%2FgUXcCvi6RvqX1AWJI91FHOHiw%3D
p265
sS'wxsid'
p266
VZEvoBfGC0OBHBQgI
p267
sS'InviteStartCount'
p268
I40
sS'User'
p269
g35
sS'fileUrl'
p270
S'https://file.wx2.qq.com/cgi-bin/mmwebwx-bin'
p271
sS'BaseRequest'
p272
(dp273
g70
g259
sS'Skey'
p274
g257
sS'DeviceID'
p275
g265
sS'Sid'
p276
g267
ssS'deviceid'
p277
S'e577030496742977'
p278
ss.