(dp0
S'cookies'
p1
(dp2
S'wxloadtime'
p3
S'1489627639'
p4
sS'webwx_data_ticket'
p5
S'gScuPelc69H33TxfU9h2oqdM'
p6
sS'wxuin'
p7
S'129428503'
p8
sS'login_frequency'
p9
S'2'
p10
sS'MM_WX_NOTIFY_STATE'
p11
S'1'
p12
sS'MM_WX_SOUND_STATE'
p13
g12
sS'webwx_auth_ticket'
p14
S'CIsBEIXRhOYMGoABwt9XVW7BcKp3WyXH7WooiHoUNyDSxOpUJe/PkXij2AU8oT55EKO/ggGIHcj3UICuU0Wpmyg0cMoYO/Ca8MpvBRpW1KaakNDnAVjck1vjEyI/h05BcIAR+07dMerbD90mdkEXgQl3LsP6udddbREgtFQAQ/EHR7g5OQQoyMWmp24='
p15
sS'last_wxuin'
p16
S'129428503'
p17
sS'webwxuvid'
p18
S'19dd1d24298d3bc911118f05dad5fd0d2b802e598974d384d2a92cd38eb0e0d9feb1f9b545338ba1d848310e5b2b6efa'
p19
sS'wxpluginkey'
p20
S'1489627507'
p21
sS'wxsid'
p22
S'B0I0YGRpgV7oKgVD'
p23
sS'mm_lang'
p24
S'zh_CN'
p25
ssS'version'
p26
S'1.2.29'
p27
sS'storage'
p28
(dp29
S'userName'
p30
V@cf070b8f16f9491e7bee3ffcae611d52c996dd7474c1a5b63e5d739b5fb14d84
p31
sS'lastInputUserName'
p32
NsS'memberList'
p33
(lp34
(dp35
S'UserName'
p36
g31
sS'City'
p37
S''
p38
sS'DisplayName'
p39
g38
sS'UniFriend'
p40
I0
sS'MemberList'
p41
(lp42
sS'PYQuanPin'
p43
V
p44
sS'RemarkPYInitial'
p45
g44
sS'Sex'
p46
I0
sS'AppAccountFlag'
p47
I0
sS'VerifyFlag'
p48
I0
sS'Province'
p49
g38
sS'KeyWord'
p50
g38
sS'RemarkName'
p51
g44
sS'PYInitial'
p52
g44
sS'ChatRoomId'
p53
I0
sS'HideInputBarFlag'
p54
I0
sVHeadImgFlag
p55
I1
sS'EncryChatRoomId'
p56
g38
sS'AttrStatus'
p57
I0
sVWebWxPluginSwitch
p58
I0
sS'SnsFlag'
p59
I0
sS'MemberCount'
p60
I0
sS'OwnerUin'
p61
I0
sS'Alias'
p62
g38
sS'Signature'
p63
g44
sS'ContactFlag'
p64
I0
sS'NickName'
p65
Vmyhelper
p66
sS'RemarkPYQuanPin'
p67
g44
sS'HeadImgUrl'
p68
V/cgi-bin/mmwebwx-bin/webwxgeticon?seq=146964426&username=@cf070b8f16f9491e7bee3ffcae611d52c996dd7474c1a5b63e5d739b5fb14d84&skey=@crypt_16f37a33_fa1b516a5bae4175a640a0701d79aeb8
p69
sS'Uin'
p70
I129428503
sS'StarFriend'
p71
I0
sS'Statues'
p72
I0
sa(dp73
VUserName
p74
V@d1437bf5e94a1e7bf3c1d3d262b1e190
p75
sVCity
p76
V\u54c8\u5c14\u6ee8
p77
sVDisplayName
p78
g44
sVUniFriend
p79
I0
sVMemberList
p80
(lp81
sVPYQuanPin
p82
Vzhaoziji
p83
sVRemarkPYInitial
p84
g44
sVUin
p85
Vhfloveyy1314
p86
sVAppAccountFlag
p87
I0
sVVerifyFlag
p88
I0
sVProvince
p89
V\u9ed1\u9f99\u6c5f
p90
sVKeyWord
p91
Vhfl
p92
sVRemarkName
p93
g44
sVPYInitial
p94
VZZJ
p95
sVChatRoomId
p96
I0
sVIsOwner
p97
I0
sVHideInputBarFlag
p98
I0
sVEncryChatRoomId
p99
g44
sVAttrStatus
p100
I77933
sVSnsFlag
p101
I49
sVMemberCount
p102
I0
sVOwnerUin
p103
I0
sVAlias
p104
g44
sVSignature
p105
V\u627e\u81ea\u5df1 \u505a\u81ea\u5df1 
p106
sVContactFlag
p107
I3
sVNickName
p108
V\u627e\u81ea\u5df1
p109
sVRemarkPYQuanPin
p110
g44
sVHeadImgUrl
p111
V/cgi-bin/mmwebwx-bin/webwxgeticon?seq=647270897&username=@d1437bf5e94a1e7bf3c1d3d262b1e190&skey=@crypt_16f37a33_fa1b516a5bae4175a640a0701d79aeb8
p112
sVSex
p113
I1
sVStarFriend
p114
I0
sVStatues
p115
I0
sasS'chatroomList'
p116
(lp117
(dp118
VUserName
p119
V@@b0a33684e00e97831f75e40d881d193facc800f54bb7e2fa714a672257f862f8
p120
sVCity
p121
g44
sVDisplayName
p122
g44
sVUniFriend
p123
I0
sS'self'
p124
(dp125
VUserName
p126
V@cf070b8f16f9491e7bee3ffcae611d52c996dd7474c1a5b63e5d739b5fb14d84
p127
sVRemarkPYQuanPin
p128
g44
sVDisplayName
p129
g44
sVKeyWord
p130
g44
sVPYInitial
p131
g44
sVUin
p132
I0
sVMemberStatus
p133
I0
sVPYQuanPin
p134
g44
sVRemarkPYInitial
p135
g44
sVNickName
p136
Vmyhelper
p137
sVAttrStatus
p138
I102437
ssVMemberList
p139
(lp140
(dp141
VUserName
p142
V@d1437bf5e94a1e7bf3c1d3d262b1e190
p143
sVRemarkPYQuanPin
p144
g44
sVDisplayName
p145
g44
sVKeyWord
p146
g44
sVPYInitial
p147
g44
sVUin
p148
I0
sVMemberStatus
p149
I0
sVPYQuanPin
p150
g44
sVRemarkPYInitial
p151
g44
sVNickName
p152
V\u627e\u81ea\u5df1
p153
sVAttrStatus
p154
I77933
sa(dp155
VUserName
p156
V@9cbf16bef2cf8ade8425ada5db8993ee061e03f6914058ccf62400912a539a8f
p157
sVRemarkPYQuanPin
p158
g44
sVDisplayName
p159
g44
sVKeyWord
p160
g44
sVPYInitial
p161
g44
sVUin
p162
I0
sVMemberStatus
p163
I0
sVPYQuanPin
p164
g44
sVRemarkPYInitial
p165
g44
sVNickName
p166
V\u7389\u6d01
p167
sVAttrStatus
p168
I104383
sa(dp169
VUserName
p170
V@9a4fa01dce24d5dd26826ae40626273cae44112914d113cef4a15b1774685331
p171
sVRemarkPYQuanPin
p172
g44
sVDisplayName
p173
g44
sVKeyWord
p174
g44
sVPYInitial
p175
g44
sVUin
p176
I0
sVMemberStatus
p177
I0
sVPYQuanPin
p178
g44
sVRemarkPYInitial
p179
g44
sVNickName
p180
Vtaozi
p181
sVAttrStatus
p182
I16880061
sag125
asVPYQuanPin
p183
g44
sVRemarkPYInitial
p184
g44
sVSex
p185
I0
sVAppAccountFlag
p186
I0
sVVerifyFlag
p187
I0
sVProvince
p188
g44
sVKeyWord
p189
g44
sVRemarkName
p190
g44
sVPYInitial
p191
g44
sVIsOwner
p192
I0
sVChatRoomId
p193
I0
sVContactType
p194
I0
sVHideInputBarFlag
p195
I0
sVEncryChatRoomId
p196
g44
sVAttrStatus
p197
I0
sVSnsFlag
p198
I0
sVMemberCount
p199
I4
sVOwnerUin
p200
I0
sVAlias
p201
g44
sVSignature
p202
g44
sVContactFlag
p203
I2
sVNickName
p204
V\u6d4b\u8bd5\u7fa4
p205
sVChatRoomOwner
p206
V@d1437bf5e94a1e7bf3c1d3d262b1e190
p207
sVRemarkPYQuanPin
p208
g44
sVHeadImgUrl
p209
V/cgi-bin/mmwebwx-bin/webwxgetheadimg?seq=0&username=@@b0a33684e00e97831f75e40d881d193facc800f54bb7e2fa714a672257f862f8&skey=@crypt_16f37a33_fa1b516a5bae4175a640a0701d79aeb8
p210
sVUin
p211
V7001348520@chatroom
p212
sVStarFriend
p213
I0
sVHeadImgUpdateFlag
p214
I1
sVStatues
p215
I1
sS'isAdmin'
p216
NsasS'nickName'
p217
g66
sS'mpList'
p218
(lp219
ssS'loginInfo'
p220
(dp221
S'SyncKey'
p222
(dp223
VCount
p224
I9
sVList
p225
(lp226
(dp227
VVal
p228
I647271267
sVKey
p229
I1
sa(dp230
VVal
p231
I647271294
sVKey
p232
I2
sa(dp233
VVal
p234
I647271038
sVKey
p235
I3
sa(dp236
VVal
p237
I647271088
sVKey
p238
I11
sa(dp239
VVal
p240
I647270873
sVKey
p241
I13
sa(dp242
VVal
p243
I1489627656
sVKey
p244
I201
sa(dp245
VVal
p246
I1489544422
sVKey
p247
I203
sa(dp248
VVal
p249
I1489627507
sVKey
p250
I1000
sa(dp251
VVal
p252
I1489574012
sVKey
p253
I1001
sassS'syncUrl'
p254
S'https://webpush.wx2.qq.com/cgi-bin/mmwebwx-bin'
p255
sS'skey'
p256
V@crypt_16f37a33_fa1b516a5bae4175a640a0701d79aeb8
p257
sS'wxuin'
p258
V129428503
p259
sS'synckey'
p260
S'1_647271267|2_647271294|3_647271038|11_647271088|13_647270873|201_1489627656|203_1489544422|1000_1489627507|1001_1489574012'
p261
sS'url'
p262
Vhttps://wx2.qq.com/cgi-bin/mmwebwx-bin
p263
sS'pass_ticket'
p264
VtCZXQnIwk187OhzniwV%2BeTIJftprB8Kbmh9nHURm5fg%3D
p265
sS'wxsid'
p266
VB0I0YGRpgV7oKgVD
p267
sS'InviteStartCount'
p268
I40
sS'User'
p269
g35
sS'fileUrl'
p270
S'https://file.wx2.qq.com/cgi-bin/mmwebwx-bin'
p271
sS'BaseRequest'
p272
(dp273
g70
g259
sS'Skey'
p274
g257
sS'DeviceID'
p275
g265
sS'Sid'
p276
g267
ssS'deviceid'
p277
S'e094012899655405'
p278
ss.